; Function Attrs: mustprogress nounwind uwtable
define hidden noundef ptr @_ZN17DependencyContext34release_and_get_next_not_unloadingEP13nmethodBucket(ptr noundef nonnull %0) local_unnamed_addr #0 align 2 {
  %2 = tail call noundef ptr @_ZN13nmethodBucket18next_not_unloadingEv(ptr noundef nonnull align 8 dereferenceable(24) %0)
  %3 = load volatile i64, ptr @_ZN17DependencyContext15_cleaning_epochE, align 8
  %4 = icmp eq i64 %3, 0
  br i1 %4, label %6, label %.preheader.i

.preheader.i:                                     ; preds = %1
  %5 = getelementptr inbounds i8, ptr %0, i64 16
  br label %9

6:                                                ; preds = %1
  tail call void @_Z8FreeHeapPv(ptr noundef nonnull %0) #12
  %7 = load i8, ptr @UsePerfData, align 1
  %8 = trunc i8 %7 to i1
  br i1 %8, label %.sink.split.i, label %_ZN17DependencyContext7releaseEP13nmethodBucket.exit

9:                                                ; preds = %9, %.preheader.i
  %10 = load volatile ptr, ptr @_ZN17DependencyContext11_purge_listE, align 8
  store volatile ptr %10, ptr %5, align 8
  %11 = tail call noundef ptr asm sideeffect "lock cmpxchgq $1,($3)", "={ax},r,{ax},r,~{cc},~{memory},~{dirflag},~{fpsr},~{flags}"(ptr nonnull %0, ptr %10, ptr nonnull @_ZN17DependencyContext11_purge_listE) #12, !srcloc !9
  %12 = icmp eq ptr %11, %10
  br i1 %12, label %13, label %9, !llvm.loop !10

13:                                               ; preds = %9
  %14 = load i8, ptr @UsePerfData, align 1
  %15 = trunc i8 %14 to i1
  br i1 %15, label %16, label %_ZN17DependencyContext7releaseEP13nmethodBucket.exit

16:                                               ; preds = %13
  %17 = load ptr, ptr @_ZN17DependencyContext31_perf_total_buckets_stale_countE, align 8
  %18 = getelementptr inbounds i8, ptr %17, i64 40
  %19 = load ptr, ptr %18, align 8
  %20 = load i64, ptr %19, align 8
  %21 = add nsw i64 %20, 1
  store i64 %21, ptr %19, align 8
  br label %.sink.split.i

.sink.split.i:                                    ; preds = %16, %6
  %_ZN17DependencyContext35_perf_total_buckets_stale_acc_countE.sink.i = phi ptr [ @_ZN17DependencyContext35_perf_total_buckets_stale_acc_countE, %16 ], [ @_ZN17DependencyContext37_perf_total_buckets_deallocated_countE, %6 ]
  %22 = load ptr, ptr %_ZN17DependencyContext35_perf_total_buckets_stale_acc_countE.sink.i, align 8
  %23 = getelementptr inbounds i8, ptr %22, i64 40
  %24 = load ptr, ptr %23, align 8
  %25 = load i64, ptr %24, align 8
  %26 = add nsw i64 %25, 1
  store i64 %26, ptr %24, align 8
  br label %_ZN17DependencyContext7releaseEP13nmethodBucket.exit

_ZN17DependencyContext7releaseEP13nmethodBucket.exit: ; preds = %6, %13, %.sink.split.i
  ret ptr %2
}